Certificate:
    Data:
        Version: 3 (0x2)
        Serial Number: 1 (0x1)
        Signature Algorithm: ecdsa-with-SHA256
        Issuer: C=AU, ST=VIC, L=Melbourne, O=AwesomeCo
        Validity
            Not Before: Jul 14 14:59:53 2022 GMT
            Not After : Jul 14 14:59:53 2023 GMT
        Subject: C=AU, ST=VIC, O=AwesomeCo, CN=localhost
        Subject Public Key Info:
            Public Key Algorithm: id-ecPublicKey
                Public-Key: (256 bit)
                pub:
                    04:45:d2:6c:e6:aa:49:4c:b0:2b:79:fa:1b:88:cf:
                    16:1b:a4:f5:36:6c:a3:43:bf:3f:06:32:ed:ac:02:
                    e0:29:c2:bf:2d:e0:ac:6b:9b:fd:c0:a7:50:4f:89:
                    9a:99:28:6b:a6:bb:69:c7:36:3b:f0:c8:3a:4c:c9:
                    6b:9c:06:42:6c
                ASN1 OID: prime256v1
                NIST CURVE: P-256
        X509v3 extensions:
            X509v3 Basic Constraints: 
                CA:FALSE
            Netscape Cert Type: 
                SSL Server
            Netscape Comment: 
                OpenSSL Generated Server Certificate
            X509v3 Subject Key Identifier: 
                69:D6:14:B2:72:5D:36:3E:6F:52:7D:ED:9E:7D:3A:A8:E0:1C:E6:7D
            X509v3 Authority Key Identifier: 
                keyid:50:E7:BD:40:FF:A0:1B:A0:B2:A2:B6:22:CB:95:FC:53:13:67:BE:1C
                DirName:/C=AU/ST=VIC/L=Melbourne/O=AwesomeCo
                serial:74:B9:D3:6C:1F:E9:FA:51:D6:9D:36:17:C4:7B:EB:59:EB:6F:DE:B8

            X509v3 Key Usage: critical
                Digital Signature, Key Encipherment
            X509v3 Extended Key Usage: 
                TLS Web Server Authentication
            X509v3 Subject Alternative Name: 
                IP Address:127.0.0.1, DNS:localhost
    Signature Algorithm: ecdsa-with-SHA256
         30:45:02:21:00:8f:04:ee:43:d3:50:e0:23:74:c3:21:68:46:
         72:1b:f8:e0:e5:d2:18:41:9b:77:e9:c5:b4:44:07:d5:56:7e:
         0d:02:20:2b:e3:e3:70:be:99:10:6f:6a:26:8f:39:f1:47:ae:
         48:14:ce:0d:de:ba:4f:7b:61:34:08:f4:74:b3:a7:68:45
-----BEGIN CERTIFICATE-----
MIICrjCCAlSgAwIBAgIBATAKBggqhkjOPQQDAjBDMQswCQYDVQQGEwJBVTEMMAoG
A1UECAwDVklDMRIwEAYDVQQHDAlNZWxib3VybmUxEjAQBgNVBAoMCUF3ZXNvbWVD
bzAeFw0yMjA3MTQxNDU5NTNaFw0yMzA3MTQxNDU5NTNaMEMxCzAJBgNVBAYTAkFV
MQwwCgYDVQQIDANWSUMxEjAQBgNVBAoMCUF3ZXNvbWVDbzESMBAGA1UEAwwJbG9j
YWxob3N0MFkwEwYHKoZIzj0CAQYIKoZIzj0DAQcDQgAERdJs5qpJTLArefobiM8W
G6T1NmyjQ78/BjLtrALgKcK/LeCsa5v9wKdQT4mamShrprtpxzY78Mg6TMlrnAZC
bKOCATcwggEzMAkGA1UdEwQCMAAwEQYJYIZIAYb4QgEBBAQDAgZAMDMGCWCGSAGG
+EIBDQQmFiRPcGVuU1NMIEdlbmVyYXRlZCBTZXJ2ZXIgQ2VydGlmaWNhdGUwHQYD
VR0OBBYEFGnWFLJyXTY+b1J97Z59OqjgHOZ9MH4GA1UdIwR3MHWAFFDnvUD/oBug
sqK2IsuV/FMTZ74coUekRTBDMQswCQYDVQQGEwJBVTEMMAoGA1UECAwDVklDMRIw
EAYDVQQHDAlNZWxib3VybmUxEjAQBgNVBAoMCUF3ZXNvbWVDb4IUdLnTbB/p+lHW
nTYXxHvrWetv3rgwDgYDVR0PAQH/BAQDAgWgMBMGA1UdJQQMMAoGCCsGAQUFBwMB
MBoGA1UdEQQTMBGHBH8AAAGCCWxvY2FsaG9zdDAKBggqhkjOPQQDAgNIADBFAiEA
jwTuQ9NQ4CN0wyFoRnIb+ODl0hhBm3fpxbREB9VWfg0CICvj43C+mRBvaiaPOfFH
rkgUzg3euk97YTQI9HSzp2hF
-----END CERTIFICATE-----
