Certificate:
    Data:
        Version: 3 (0x2)
        Serial Number: 4 (0x4)
        Signature Algorithm: ecdsa-with-SHA256
        Issuer: C=AU, ST=VIC, L=Melbourne, O=AwesomeCo, CN=ca
        Validity
            Not Before: Jul 14 15:27:24 2022 GMT
            Not After : Jul 14 15:27:24 2023 GMT
        Subject: C=AU, ST=VIC, O=AwesomeCo, CN=third/emailAddress=third@third.com
        Subject Public Key Info:
            Public Key Algorithm: id-ecPublicKey
                Public-Key: (256 bit)
                pub:
                    04:cd:a9:16:63:2d:8b:3c:4b:06:ef:9a:4c:a5:5e:
                    d3:43:11:0f:6f:ba:b3:7d:dd:e1:d5:54:50:fb:9b:
                    db:15:37:a6:1b:76:34:ef:df:78:85:7d:a4:92:c1:
                    06:f9:87:b7:5c:4b:26:ce:1a:25:92:df:be:ea:a9:
                    07:22:07:1c:42
                ASN1 OID: prime256v1
                NIST CURVE: P-256
        X509v3 extensions:
            X509v3 Basic Constraints: 
                CA:FALSE
            Netscape Cert Type: 
                SSL Client, S/MIME
            Netscape Comment: 
                OpenSSL Generated Client Certificate
            X509v3 Subject Key Identifier: 
                CA:C0:7E:0E:8D:F1:E7:8A:25:4F:E8:AA:FA:7B:F0:A7:97:53:61:1B
            X509v3 Authority Key Identifier: 
                keyid:0E:A5:94:1C:5F:CB:3C:25:E9:37:61:AD:4F:DA:38:EB:E3:42:85:4E

            X509v3 Key Usage: critical
                Digital Signature, Non Repudiation, Key Encipherment
            X509v3 Extended Key Usage: 
                TLS Web Client Authentication, E-mail Protection
    Signature Algorithm: ecdsa-with-SHA256
         30:46:02:21:00:96:85:ae:35:d0:3e:6d:bd:ce:bc:7e:f2:7a:
         27:d1:17:e3:f8:a5:3c:7f:57:4c:87:87:3b:b2:19:8d:c8:5f:
         18:02:21:00:bb:11:ca:d5:28:a6:5c:17:f5:42:17:6e:ee:67:
         20:42:03:7e:46:ac:02:ad:09:48:79:fd:a5:d9:b8:a3:a7:84
-----BEGIN CERTIFICATE-----
MIICZTCCAgqgAwIBAgIBBDAKBggqhkjOPQQDAjBQMQswCQYDVQQGEwJBVTEMMAoG
A1UECAwDVklDMRIwEAYDVQQHDAlNZWxib3VybmUxEjAQBgNVBAoMCUF3ZXNvbWVD
bzELMAkGA1UEAwwCY2EwHhcNMjIwNzE0MTUyNzI0WhcNMjMwNzE0MTUyNzI0WjBf
MQswCQYDVQQGEwJBVTEMMAoGA1UECAwDVklDMRIwEAYDVQQKDAlBd2Vzb21lQ28x
DjAMBgNVBAMMBXRoaXJkMR4wHAYJKoZIhvcNAQkBFg90aGlyZEB0aGlyZC5jb20w
WTATBgcqhkjOPQIBBggqhkjOPQMBBwNCAATNqRZjLYs8SwbvmkylXtNDEQ9vurN9
3eHVVFD7m9sVN6YbdjTv33iFfaSSwQb5h7dcSybOGiWS377qqQciBxxCo4HFMIHC
MAkGA1UdEwQCMAAwEQYJYIZIAYb4QgEBBAQDAgWgMDMGCWCGSAGG+EIBDQQmFiRP
cGVuU1NMIEdlbmVyYXRlZCBDbGllbnQgQ2VydGlmaWNhdGUwHQYDVR0OBBYEFMrA
fg6N8eeKJU/oqvp78KeXU2EbMB8GA1UdIwQYMBaAFA6llBxfyzwl6TdhrU/aOOvj
QoVOMA4GA1UdDwEB/wQEAwIF4DAdBgNVHSUEFjAUBggrBgEFBQcDAgYIKwYBBQUH
AwQwCgYIKoZIzj0EAwIDSQAwRgIhAJaFrjXQPm29zrx+8non0Rfj+KU8f1dMh4c7
shmNyF8YAiEAuxHK1SimXBf1Qhdu7mcgQgN+RqwCrQlIef2l2bijp4Q=
-----END CERTIFICATE-----
