Certificate:
    Data:
        Version: 3 (0x2)
        Serial Number: 6 (0x6)
        Signature Algorithm: ecdsa-with-SHA256
        Issuer: C=AU, ST=VIC, L=Melbourne, O=AwesomeCo
        Validity
            Not Before: Jul 14 15:02:31 2022 GMT
            Not After : Jul 14 15:02:31 2023 GMT
        Subject: C=AU, ST=VIC, O=AwesomeCo, CN=fourth/emailAddress=fourth@fourth.com
        Subject Public Key Info:
            Public Key Algorithm: id-ecPublicKey
                Public-Key: (256 bit)
                pub:
                    04:63:86:66:49:f4:28:b0:ee:4c:23:17:c2:75:3b:
                    79:46:bd:cb:72:45:6f:06:97:dc:2f:da:c8:f6:19:
                    0f:b7:23:c7:28:bd:4f:64:e8:5d:dc:0c:e2:9c:90:
                    3d:cc:8a:73:ca:b2:8b:b7:76:ec:7d:16:0c:b4:56:
                    72:3f:af:7a:3a
                ASN1 OID: prime256v1
                NIST CURVE: P-256
        X509v3 extensions:
            X509v3 Basic Constraints: 
                CA:FALSE
            Netscape Cert Type: 
                SSL Client, S/MIME
            Netscape Comment: 
                OpenSSL Generated Client Certificate
            X509v3 Subject Key Identifier: 
                0E:44:96:4B:40:AF:BE:3D:B9:6D:BF:A3:25:85:CF:46:89:54:EF:2E
            X509v3 Authority Key Identifier: 
                keyid:50:E7:BD:40:FF:A0:1B:A0:B2:A2:B6:22:CB:95:FC:53:13:67:BE:1C

            X509v3 Key Usage: critical
                Digital Signature, Non Repudiation, Key Encipherment
            X509v3 Extended Key Usage: 
                TLS Web Client Authentication, E-mail Protection
    Signature Algorithm: ecdsa-with-SHA256
         30:46:02:21:00:f4:13:70:79:12:12:1d:3b:54:d3:4e:81:26:
         78:d6:94:a7:9b:ad:16:6f:a8:da:1b:08:25:0e:77:42:75:3d:
         65:02:21:00:dc:d6:2e:3b:b0:5b:f1:42:09:62:4f:96:c8:f5:
         d0:17:38:dc:d6:df:24:d6:ce:14:70:f4:7c:7a:fd:05:2b:b5
-----BEGIN CERTIFICATE-----
MIICWzCCAgCgAwIBAgIBBjAKBggqhkjOPQQDAjBDMQswCQYDVQQGEwJBVTEMMAoG
A1UECAwDVklDMRIwEAYDVQQHDAlNZWxib3VybmUxEjAQBgNVBAoMCUF3ZXNvbWVD
bzAeFw0yMjA3MTQxNTAyMzFaFw0yMzA3MTQxNTAyMzFaMGIxCzAJBgNVBAYTAkFV
MQwwCgYDVQQIDANWSUMxEjAQBgNVBAoMCUF3ZXNvbWVDbzEPMA0GA1UEAwwGZm91
cnRoMSAwHgYJKoZIhvcNAQkBFhFmb3VydGhAZm91cnRoLmNvbTBZMBMGByqGSM49
AgEGCCqGSM49AwEHA0IABGOGZkn0KLDuTCMXwnU7eUa9y3JFbwaX3C/ayPYZD7cj
xyi9T2ToXdwM4pyQPcyKc8qyi7d27H0WDLRWcj+vejqjgcUwgcIwCQYDVR0TBAIw
ADARBglghkgBhvhCAQEEBAMCBaAwMwYJYIZIAYb4QgENBCYWJE9wZW5TU0wgR2Vu
ZXJhdGVkIENsaWVudCBDZXJ0aWZpY2F0ZTAdBgNVHQ4EFgQUDkSWS0Cvvj25bb+j
JYXPRolU7y4wHwYDVR0jBBgwFoAUUOe9QP+gG6CyorYiy5X8UxNnvhwwDgYDVR0P
AQH/BAQDAgXgMB0GA1UdJQQWMBQGCCsGAQUFBwMCBggrBgEFBQcDBDAKBggqhkjO
PQQDAgNJADBGAiEA9BNweRISHTtU006BJnjWlKebrRZvqNobCCUOd0J1PWUCIQDc
1i47sFvxQgliT5bI9dAXONzW3yTWzhRw9Hx6/QUrtQ==
-----END CERTIFICATE-----
