Certificate:
    Data:
        Version: 3 (0x2)
        Serial Number: 7 (0x7)
        Signature Algorithm: ecdsa-with-SHA256
        Issuer: C=AU, ST=VIC, L=Melbourne, O=AwesomeCo
        Validity
            Not Before: Jul 14 15:02:55 2022 GMT
            Not After : Jul 14 15:02:55 2023 GMT
        Subject: C=AU, ST=VIC, O=AwesomeCo, CN=fifth/emailAddress=fifth@fifth.com
        Subject Public Key Info:
            Public Key Algorithm: id-ecPublicKey
                Public-Key: (256 bit)
                pub:
                    04:0c:75:da:4c:21:82:60:f7:cf:84:6a:1d:5e:dd:
                    6f:f7:5d:be:d0:79:2f:82:12:8c:07:73:91:a0:0e:
                    4a:4d:7a:eb:4a:98:5d:da:b1:53:65:2c:ce:da:1d:
                    be:67:e5:63:32:70:1a:c8:84:a1:03:41:74:f2:2a:
                    99:70:74:37:94
                ASN1 OID: prime256v1
                NIST CURVE: P-256
        X509v3 extensions:
            X509v3 Basic Constraints: 
                CA:FALSE
            Netscape Cert Type: 
                SSL Client, S/MIME
            Netscape Comment: 
                OpenSSL Generated Client Certificate
            X509v3 Subject Key Identifier: 
                B5:DF:4E:8C:4B:E0:F0:BF:DC:87:27:CE:DA:4F:75:3A:B9:E6:B9:3B
            X509v3 Authority Key Identifier: 
                keyid:F8:29:F0:0F:42:85:68:59:A8:72:85:3A:E3:A1:3D:E0:6D:42:84:02

            X509v3 Key Usage: critical
                Digital Signature, Non Repudiation, Key Encipherment
            X509v3 Extended Key Usage: 
                TLS Web Client Authentication, E-mail Protection
    Signature Algorithm: ecdsa-with-SHA256
         30:46:02:21:00:94:5d:25:0d:cb:e0:3d:1e:93:35:db:66:86:
         70:23:ba:22:ac:da:c2:ce:80:c0:a7:95:80:ae:64:b1:86:91:
         49:02:21:00:c6:86:2a:5c:1c:9c:86:42:1a:46:fe:98:91:ef:
         a9:28:72:96:92:64:e6:4b:24:0b:95:5d:86:48:60:ea:f8:33
-----BEGIN CERTIFICATE-----
MIICWDCCAf2gAwIBAgIBBzAKBggqhkjOPQQDAjBDMQswCQYDVQQGEwJBVTEMMAoG
A1UECAwDVklDMRIwEAYDVQQHDAlNZWxib3VybmUxEjAQBgNVBAoMCUF3ZXNvbWVD
bzAeFw0yMjA3MTQxNTAyNTVaFw0yMzA3MTQxNTAyNTVaMF8xCzAJBgNVBAYTAkFV
MQwwCgYDVQQIDANWSUMxEjAQBgNVBAoMCUF3ZXNvbWVDbzEOMAwGA1UEAwwFZmlm
dGgxHjAcBgkqhkiG9w0BCQEWD2ZpZnRoQGZpZnRoLmNvbTBZMBMGByqGSM49AgEG
CCqGSM49AwEHA0IABAx12kwhgmD3z4RqHV7db/ddvtB5L4ISjAdzkaAOSk1660qY
XdqxU2UsztodvmflYzJwGsiEoQNBdPIqmXB0N5SjgcUwgcIwCQYDVR0TBAIwADAR
BglghkgBhvhCAQEEBAMCBaAwMwYJYIZIAYb4QgENBCYWJE9wZW5TU0wgR2VuZXJh
dGVkIENsaWVudCBDZXJ0aWZpY2F0ZTAdBgNVHQ4EFgQUtd9OjEvg8L/chyfO2k91
OrnmuTswHwYDVR0jBBgwFoAU+CnwD0KFaFmocoU646E94G1ChAIwDgYDVR0PAQH/
BAQDAgXgMB0GA1UdJQQWMBQGCCsGAQUFBwMCBggrBgEFBQcDBDAKBggqhkjOPQQD
AgNJADBGAiEAlF0lDcvgPR6TNdtmhnAjuiKs2sLOgMCnlYCuZLGGkUkCIQDGhipc
HJyGQhpG/piR76kocpaSZOZLJAuVXYZIYOr4Mw==
-----END CERTIFICATE-----
