Certificate:
    Data:
        Version: 3 (0x2)
        Serial Number: 2 (0x2)
        Signature Algorithm: ecdsa-with-SHA256
        Issuer: C=AU, ST=VIC, L=Melbourne, O=AwesomeCo
        Validity
            Not Before: Jul 14 15:00:19 2022 GMT
            Not After : Jul 14 15:00:19 2023 GMT
        Subject: C=AU, ST=VIC, O=AwesomeCo, CN=otherhost
        Subject Public Key Info:
            Public Key Algorithm: id-ecPublicKey
                Public-Key: (256 bit)
                pub:
                    04:1e:41:dd:09:31:8d:1a:a4:f9:c1:9d:27:50:89:
                    7f:93:c6:8c:9a:e6:b5:dd:35:45:a6:24:9b:a5:9c:
                    8f:db:32:c2:d9:73:93:2e:de:33:70:20:9d:f6:f4:
                    7f:0d:86:40:a9:5e:b6:1d:a1:30:3f:e4:c8:55:72:
                    2f:0f:fc:bd:b5
                ASN1 OID: prime256v1
                NIST CURVE: P-256
        X509v3 extensions:
            X509v3 Basic Constraints: 
                CA:FALSE
            Netscape Cert Type: 
                SSL Server
            Netscape Comment: 
                OpenSSL Generated Server Certificate
            X509v3 Subject Key Identifier: 
                8E:FB:63:F9:09:DC:60:52:12:89:EA:9D:18:9F:2E:2A:CA:5B:3B:D6
            X509v3 Authority Key Identifier: 
                keyid:F8:29:F0:0F:42:85:68:59:A8:72:85:3A:E3:A1:3D:E0:6D:42:84:02
                DirName:/C=AU/ST=VIC/L=Melbourne/O=AwesomeCo
                serial:2E:4E:08:E4:94:FE:E6:3A:B3:41:30:3A:D3:56:F1:EE:9A:42:03:F5

            X509v3 Key Usage: critical
                Digital Signature, Key Encipherment
            X509v3 Extended Key Usage: 
                TLS Web Server Authentication
            X509v3 Subject Alternative Name: 
                IP Address:127.0.0.1, DNS:localhost
    Signature Algorithm: ecdsa-with-SHA256
         30:45:02:21:00:9f:43:6b:26:0d:6d:44:91:68:fb:df:9e:13:
         44:bc:d9:ad:d8:fc:63:1f:f5:df:e3:31:65:35:44:38:73:b3:
         3c:02:20:18:d4:9a:09:87:fe:cf:3c:eb:fb:94:ef:28:68:99:
         82:a2:62:a6:e0:9f:6b:d8:50:ea:8c:dc:a6:56:e8:61:79
-----BEGIN CERTIFICATE-----
MIICrjCCAlSgAwIBAgIBAjAKBggqhkjOPQQDAjBDMQswCQYDVQQGEwJBVTEMMAoG
A1UECAwDVklDMRIwEAYDVQQHDAlNZWxib3VybmUxEjAQBgNVBAoMCUF3ZXNvbWVD
bzAeFw0yMjA3MTQxNTAwMTlaFw0yMzA3MTQxNTAwMTlaMEMxCzAJBgNVBAYTAkFV
MQwwCgYDVQQIDANWSUMxEjAQBgNVBAoMCUF3ZXNvbWVDbzESMBAGA1UEAwwJb3Ro
ZXJob3N0MFkwEwYHKoZIzj0CAQYIKoZIzj0DAQcDQgAEHkHdCTGNGqT5wZ0nUIl/
k8aMmua13TVFpiSbpZyP2zLC2XOTLt4zcCCd9vR/DYZAqV62HaEwP+TIVXIvD/y9
taOCATcwggEzMAkGA1UdEwQCMAAwEQYJYIZIAYb4QgEBBAQDAgZAMDMGCWCGSAGG
+EIBDQQmFiRPcGVuU1NMIEdlbmVyYXRlZCBTZXJ2ZXIgQ2VydGlmaWNhdGUwHQYD
VR0OBBYEFI77Y/kJ3GBSEonqnRifLirKWzvWMH4GA1UdIwR3MHWAFPgp8A9ChWhZ
qHKFOuOhPeBtQoQCoUekRTBDMQswCQYDVQQGEwJBVTEMMAoGA1UECAwDVklDMRIw
EAYDVQQHDAlNZWxib3VybmUxEjAQBgNVBAoMCUF3ZXNvbWVDb4IULk4I5JT+5jqz
QTA601bx7ppCA/UwDgYDVR0PAQH/BAQDAgWgMBMGA1UdJQQMMAoGCCsGAQUFBwMB
MBoGA1UdEQQTMBGHBH8AAAGCCWxvY2FsaG9zdDAKBggqhkjOPQQDAgNIADBFAiEA
n0NrJg1tRJFo+9+eE0S82a3Y/GMf9d/jMWU1RDhzszwCIBjUmgmH/s886/uU7yho
mYKiYqbgn2vYUOqM3KZW6GF5
-----END CERTIFICATE-----
