Certificate:
    Data:
        Version: 3 (0x2)
        Serial Number: 5 (0x5)
        Signature Algorithm: ecdsa-with-SHA256
        Issuer: C=AU, ST=VIC, L=Melbourne, O=AwesomeCo, CN=ca
        Validity
            Not Before: Jul 14 15:27:52 2022 GMT
            Not After : Jul 14 15:27:52 2023 GMT
        Subject: C=AU, ST=VIC, O=AwesomeCo, CN=fourth/emailAddress=fourth@fourth.com
        Subject Public Key Info:
            Public Key Algorithm: id-ecPublicKey
                Public-Key: (256 bit)
                pub:
                    04:34:81:eb:8c:ce:05:1f:a3:cd:76:af:bb:99:bc:
                    58:0f:be:25:e0:30:d1:ca:2f:2a:81:a3:6e:7f:e8:
                    1c:0d:a1:a6:b9:59:a0:84:e2:76:89:2b:94:b7:59:
                    32:bf:e0:bb:f0:08:e1:8c:bc:3d:7c:c9:76:ac:24:
                    6d:2a:2a:0f:db
                ASN1 OID: prime256v1
                NIST CURVE: P-256
        X509v3 extensions:
            X509v3 Basic Constraints: 
                CA:FALSE
            Netscape Cert Type: 
                SSL Client, S/MIME
            Netscape Comment: 
                OpenSSL Generated Client Certificate
            X509v3 Subject Key Identifier: 
                27:E7:5A:88:DE:1F:93:20:D0:64:43:5D:2A:4C:A4:5F:8D:08:68:73
            X509v3 Authority Key Identifier: 
                keyid:0E:A5:94:1C:5F:CB:3C:25:E9:37:61:AD:4F:DA:38:EB:E3:42:85:4E

            X509v3 Key Usage: critical
                Digital Signature, Non Repudiation, Key Encipherment
            X509v3 Extended Key Usage: 
                TLS Web Client Authentication, E-mail Protection
    Signature Algorithm: ecdsa-with-SHA256
         30:45:02:21:00:9b:47:6b:ad:e9:51:eb:01:01:cb:c0:a9:35:
         85:06:d1:39:33:79:0d:f4:9c:c5:5e:5b:f6:16:c5:1b:80:b7:
         ef:02:20:0b:ab:a4:54:7a:4e:50:0a:dc:42:b3:99:ce:af:c6:
         94:b9:b7:1e:69:5c:0c:15:5a:f7:44:7f:f9:1e:97:e0:c4
-----BEGIN CERTIFICATE-----
MIICZzCCAg2gAwIBAgIBBTAKBggqhkjOPQQDAjBQMQswCQYDVQQGEwJBVTEMMAoG
A1UECAwDVklDMRIwEAYDVQQHDAlNZWxib3VybmUxEjAQBgNVBAoMCUF3ZXNvbWVD
bzELMAkGA1UEAwwCY2EwHhcNMjIwNzE0MTUyNzUyWhcNMjMwNzE0MTUyNzUyWjBi
MQswCQYDVQQGEwJBVTEMMAoGA1UECAwDVklDMRIwEAYDVQQKDAlBd2Vzb21lQ28x
DzANBgNVBAMMBmZvdXJ0aDEgMB4GCSqGSIb3DQEJARYRZm91cnRoQGZvdXJ0aC5j
b20wWTATBgcqhkjOPQIBBggqhkjOPQMBBwNCAAQ0geuMzgUfo812r7uZvFgPviXg
MNHKLyqBo25/6BwNoaa5WaCE4naJK5S3WTK/4LvwCOGMvD18yXasJG0qKg/bo4HF
MIHCMAkGA1UdEwQCMAAwEQYJYIZIAYb4QgEBBAQDAgWgMDMGCWCGSAGG+EIBDQQm
FiRPcGVuU1NMIEdlbmVyYXRlZCBDbGllbnQgQ2VydGlmaWNhdGUwHQYDVR0OBBYE
FCfnWojeH5Mg0GRDXSpMpF+NCGhzMB8GA1UdIwQYMBaAFA6llBxfyzwl6TdhrU/a
OOvjQoVOMA4GA1UdDwEB/wQEAwIF4DAdBgNVHSUEFjAUBggrBgEFBQcDAgYIKwYB
BQUHAwQwCgYIKoZIzj0EAwIDSAAwRQIhAJtHa63pUesBAcvAqTWFBtE5M3kN9JzF
Xlv2FsUbgLfvAiALq6RUek5QCtxCs5nOr8aUubceaVwMFVr3RH/5HpfgxA==
-----END CERTIFICATE-----
