Certificate:
    Data:
        Version: 3 (0x2)
        Serial Number: 4 (0x4)
        Signature Algorithm: ecdsa-with-SHA256
        Issuer: C=AU, ST=VIC, L=Melbourne, O=AwesomeCo
        Validity
            Not Before: Jul 14 15:01:37 2022 GMT
            Not After : Jul 14 15:01:37 2023 GMT
        Subject: C=AU, ST=VIC, O=AwesomeCo, CN=second/emailAddress=second@second.com
        Subject Public Key Info:
            Public Key Algorithm: id-ecPublicKey
                Public-Key: (256 bit)
                pub:
                    04:71:1e:e2:42:1e:68:fa:9d:f3:2e:9f:ef:59:73:
                    27:94:25:3f:a4:58:ff:08:a0:54:90:b2:99:a5:83:
                    0d:5f:7b:53:1b:eb:b7:0b:ae:9a:c1:18:d0:23:fe:
                    9f:b8:fe:fe:a1:af:9c:8c:3b:b0:2c:da:52:71:cb:
                    b2:e7:8b:45:c6
                ASN1 OID: prime256v1
                NIST CURVE: P-256
        X509v3 extensions:
            X509v3 Basic Constraints: 
                CA:FALSE
            Netscape Cert Type: 
                SSL Client, S/MIME
            Netscape Comment: 
                OpenSSL Generated Client Certificate
            X509v3 Subject Key Identifier: 
                2B:C4:F2:94:C9:96:D0:F8:DB:35:E4:44:21:23:F6:78:FE:86:FB:C1
            X509v3 Authority Key Identifier: 
                keyid:50:E7:BD:40:FF:A0:1B:A0:B2:A2:B6:22:CB:95:FC:53:13:67:BE:1C

            X509v3 Key Usage: critical
                Digital Signature, Non Repudiation, Key Encipherment
            X509v3 Extended Key Usage: 
                TLS Web Client Authentication, E-mail Protection
    Signature Algorithm: ecdsa-with-SHA256
         30:46:02:21:00:f4:ec:ac:b0:da:f3:a2:cc:ff:7f:25:40:32:
         3c:1f:54:b8:a1:88:ff:be:be:26:df:a9:f2:64:5e:4b:ac:97:
         b5:02:21:00:a8:85:73:89:8f:78:31:51:f2:87:fc:2c:5c:0e:
         dc:e7:1c:3c:63:3d:a9:00:96:f4:a6:7e:eb:01:18:48:62:9f
-----BEGIN CERTIFICATE-----
MIICWzCCAgCgAwIBAgIBBDAKBggqhkjOPQQDAjBDMQswCQYDVQQGEwJBVTEMMAoG
A1UECAwDVklDMRIwEAYDVQQHDAlNZWxib3VybmUxEjAQBgNVBAoMCUF3ZXNvbWVD
bzAeFw0yMjA3MTQxNTAxMzdaFw0yMzA3MTQxNTAxMzdaMGIxCzAJBgNVBAYTAkFV
MQwwCgYDVQQIDANWSUMxEjAQBgNVBAoMCUF3ZXNvbWVDbzEPMA0GA1UEAwwGc2Vj
b25kMSAwHgYJKoZIhvcNAQkBFhFzZWNvbmRAc2Vjb25kLmNvbTBZMBMGByqGSM49
AgEGCCqGSM49AwEHA0IABHEe4kIeaPqd8y6f71lzJ5QlP6RY/wigVJCymaWDDV97
UxvrtwuumsEY0CP+n7j+/qGvnIw7sCzaUnHLsueLRcajgcUwgcIwCQYDVR0TBAIw
ADARBglghkgBhvhCAQEEBAMCBaAwMwYJYIZIAYb4QgENBCYWJE9wZW5TU0wgR2Vu
ZXJhdGVkIENsaWVudCBDZXJ0aWZpY2F0ZTAdBgNVHQ4EFgQUK8TylMmW0PjbNeRE
ISP2eP6G+8EwHwYDVR0jBBgwFoAUUOe9QP+gG6CyorYiy5X8UxNnvhwwDgYDVR0P
AQH/BAQDAgXgMB0GA1UdJQQWMBQGCCsGAQUFBwMCBggrBgEFBQcDBDAKBggqhkjO
PQQDAgNJADBGAiEA9OyssNrzosz/fyVAMjwfVLihiP++vibfqfJkXkusl7UCIQCo
hXOJj3gxUfKH/CxcDtznHDxjPakAlvSmfusBGEhinw==
-----END CERTIFICATE-----
