Certificate:
    Data:
        Version: 3 (0x2)
        Serial Number: 1 (0x1)
        Signature Algorithm: ecdsa-with-SHA256
        Issuer: C=AU, ST=VIC, L=Melbourne, O=AwesomeCo, CN=ca
        Validity
            Not Before: Jul 14 15:24:31 2022 GMT
            Not After : Jul 14 15:24:31 2023 GMT
        Subject: C=AU, ST=VIC, O=AwesomeCo, CN=localhost
        Subject Public Key Info:
            Public Key Algorithm: id-ecPublicKey
                Public-Key: (256 bit)
                pub:
                    04:3f:6a:10:d7:28:c6:dc:6c:26:21:02:71:7d:ab:
                    7b:4e:36:6f:54:e0:fa:54:1a:58:78:94:c4:de:a9:
                    ce:68:41:de:35:c9:08:81:a0:ec:0c:a5:41:62:d9:
                    8f:f8:ec:fd:a2:c4:9f:b0:3a:ea:cf:29:e2:9e:33:
                    19:72:23:ee:ae
                ASN1 OID: prime256v1
                NIST CURVE: P-256
        X509v3 extensions:
            X509v3 Basic Constraints: 
                CA:FALSE
            Netscape Cert Type: 
                SSL Server
            Netscape Comment: 
                OpenSSL Generated Server Certificate
            X509v3 Subject Key Identifier: 
                61:14:FF:80:53:FB:B3:A3:F4:C7:1C:A9:B5:0C:F6:A0:60:D4:C6:D2
            X509v3 Authority Key Identifier: 
                keyid:0E:A5:94:1C:5F:CB:3C:25:E9:37:61:AD:4F:DA:38:EB:E3:42:85:4E
                DirName:/C=AU/ST=VIC/L=Melbourne/O=AwesomeCo/CN=ca
                serial:08:F3:87:12:01:64:85:38:9A:6C:DB:A2:2F:DD:65:F6:38:13:55:54

            X509v3 Key Usage: critical
                Digital Signature, Key Encipherment
            X509v3 Extended Key Usage: 
                TLS Web Server Authentication
            X509v3 Subject Alternative Name: 
                IP Address:127.0.0.1, DNS:localhost
    Signature Algorithm: ecdsa-with-SHA256
         30:43:02:1f:19:d0:1f:2b:06:69:70:12:b0:41:57:d9:fe:61:
         d9:da:27:e9:40:4a:a2:e4:ee:5b:68:31:ea:51:97:ca:7a:02:
         20:2b:f4:d4:c3:f0:51:8e:25:07:ed:4e:83:2e:31:79:a8:b6:
         fa:0b:95:76:10:09:4a:e4:64:83:9a:2b:e0:49:6d
-----BEGIN CERTIFICATE-----
MIICyTCCAnGgAwIBAgIBATAKBggqhkjOPQQDAjBQMQswCQYDVQQGEwJBVTEMMAoG
A1UECAwDVklDMRIwEAYDVQQHDAlNZWxib3VybmUxEjAQBgNVBAoMCUF3ZXNvbWVD
bzELMAkGA1UEAwwCY2EwHhcNMjIwNzE0MTUyNDMxWhcNMjMwNzE0MTUyNDMxWjBD
MQswCQYDVQQGEwJBVTEMMAoGA1UECAwDVklDMRIwEAYDVQQKDAlBd2Vzb21lQ28x
EjAQBgNVBAMMCWxvY2FsaG9zdDBZMBMGByqGSM49AgEGCCqGSM49AwEHA0IABD9q
ENcoxtxsJiECcX2re042b1Tg+lQaWHiUxN6pzmhB3jXJCIGg7AylQWLZj/js/aLE
n7A66s8p4p4zGXIj7q6jggFHMIIBQzAJBgNVHRMEAjAAMBEGCWCGSAGG+EIBAQQE
AwIGQDAzBglghkgBhvhCAQ0EJhYkT3BlblNTTCBHZW5lcmF0ZWQgU2VydmVyIENl
cnRpZmljYXRlMB0GA1UdDgQWBBRhFP+AU/uzo/THHKm1DPagYNTG0jCBjQYDVR0j
BIGFMIGCgBQOpZQcX8s8Jek3Ya1P2jjr40KFTqFUpFIwUDELMAkGA1UEBhMCQVUx
DDAKBgNVBAgMA1ZJQzESMBAGA1UEBwwJTWVsYm91cm5lMRIwEAYDVQQKDAlBd2Vz
b21lQ28xCzAJBgNVBAMMAmNhghQI84cSAWSFOJps26Iv3WX2OBNVVDAOBgNVHQ8B
Af8EBAMCBaAwEwYDVR0lBAwwCgYIKwYBBQUHAwEwGgYDVR0RBBMwEYcEfwAAAYIJ
bG9jYWxob3N0MAoGCCqGSM49BAMCA0YAMEMCHxnQHysGaXASsEFX2f5h2don6UBK
ouTuW2gx6lGXynoCICv01MPwUY4lB+1Ogy4xeai2+guVdhAJSuRkg5or4Elt
-----END CERTIFICATE-----
