Certificate:
    Data:
        Version: 3 (0x2)
        Serial Number: 5 (0x5)
        Signature Algorithm: ecdsa-with-SHA256
        Issuer: C=AU, ST=VIC, L=Melbourne, O=AwesomeCo
        Validity
            Not Before: Jul 14 15:02:07 2022 GMT
            Not After : Jul 14 15:02:07 2023 GMT
        Subject: C=AU, ST=VIC, O=AwesomeCo, CN=third/emailAddress=third@third.com
        Subject Public Key Info:
            Public Key Algorithm: id-ecPublicKey
                Public-Key: (256 bit)
                pub:
                    04:bd:67:43:47:c6:46:a8:c6:b1:26:b8:ef:4e:30:
                    34:d5:52:16:9a:6e:fe:44:39:5b:dd:8b:11:79:97:
                    1a:6b:56:44:bf:d3:e0:e8:f1:2c:f3:79:0e:79:69:
                    fb:0d:ca:ba:7a:52:9b:01:dc:4a:60:85:a9:7d:ec:
                    ff:b2:5c:d4:2c
                ASN1 OID: prime256v1
                NIST CURVE: P-256
        X509v3 extensions:
            X509v3 Basic Constraints: 
                CA:FALSE
            Netscape Cert Type: 
                SSL Client, S/MIME
            Netscape Comment: 
                OpenSSL Generated Client Certificate
            X509v3 Subject Key Identifier: 
                79:09:D6:8E:A7:71:26:43:3C:39:FB:D7:8D:75:CC:63:C4:87:05:7C
            X509v3 Authority Key Identifier: 
                keyid:50:E7:BD:40:FF:A0:1B:A0:B2:A2:B6:22:CB:95:FC:53:13:67:BE:1C

            X509v3 Key Usage: critical
                Digital Signature, Non Repudiation, Key Encipherment
            X509v3 Extended Key Usage: 
                TLS Web Client Authentication, E-mail Protection
    Signature Algorithm: ecdsa-with-SHA256
         30:44:02:20:78:fb:5f:fa:c9:ab:fc:65:75:ac:f9:30:33:84:
         0e:55:70:cc:1b:4e:86:3f:f5:af:02:ca:02:35:62:46:f6:3b:
         02:20:70:b1:f0:1e:80:96:c5:98:a0:0c:bd:c5:70:12:95:a4:
         dd:2d:8b:da:52:ba:f7:6e:0a:b0:bb:3c:a9:6a:ff:35
-----BEGIN CERTIFICATE-----
MIICVjCCAf2gAwIBAgIBBTAKBggqhkjOPQQDAjBDMQswCQYDVQQGEwJBVTEMMAoG
A1UECAwDVklDMRIwEAYDVQQHDAlNZWxib3VybmUxEjAQBgNVBAoMCUF3ZXNvbWVD
bzAeFw0yMjA3MTQxNTAyMDdaFw0yMzA3MTQxNTAyMDdaMF8xCzAJBgNVBAYTAkFV
MQwwCgYDVQQIDANWSUMxEjAQBgNVBAoMCUF3ZXNvbWVDbzEOMAwGA1UEAwwFdGhp
cmQxHjAcBgkqhkiG9w0BCQEWD3RoaXJkQHRoaXJkLmNvbTBZMBMGByqGSM49AgEG
CCqGSM49AwEHA0IABL1nQ0fGRqjGsSa4704wNNVSFppu/kQ5W92LEXmXGmtWRL/T
4OjxLPN5Dnlp+w3KunpSmwHcSmCFqX3s/7Jc1CyjgcUwgcIwCQYDVR0TBAIwADAR
BglghkgBhvhCAQEEBAMCBaAwMwYJYIZIAYb4QgENBCYWJE9wZW5TU0wgR2VuZXJh
dGVkIENsaWVudCBDZXJ0aWZpY2F0ZTAdBgNVHQ4EFgQUeQnWjqdxJkM8OfvXjXXM
Y8SHBXwwHwYDVR0jBBgwFoAUUOe9QP+gG6CyorYiy5X8UxNnvhwwDgYDVR0PAQH/
BAQDAgXgMB0GA1UdJQQWMBQGCCsGAQUFBwMCBggrBgEFBQcDBDAKBggqhkjOPQQD
AgNHADBEAiB4+1/6yav8ZXWs+TAzhA5VcMwbToY/9a8CygI1Ykb2OwIgcLHwHoCW
xZigDL3FcBKVpN0ti9pSuvduCrC7PKlq/zU=
-----END CERTIFICATE-----
