Certificate:
    Data:
        Version: 3 (0x2)
        Serial Number: 2 (0x2)
        Signature Algorithm: ecdsa-with-SHA256
        Issuer: C=AU, ST=VIC, L=Melbourne, O=NotAwesomeCo, CN=ca
        Validity
            Not Before: Jul 14 15:37:12 2022 GMT
            Not After : Jul 14 15:37:12 2023 GMT
        Subject: C=AU, ST=VIC, O=NotAwesomeCo, CN=first/emailAddress=first@first.com
        Subject Public Key Info:
            Public Key Algorithm: id-ecPublicKey
                Public-Key: (256 bit)
                pub:
                    04:22:f3:76:fe:95:b7:07:99:55:12:96:b7:83:8d:
                    82:a2:eb:b4:61:7e:01:e6:f5:6d:3b:72:2e:1c:7b:
                    8e:63:5a:0f:22:f8:c2:0a:d9:7c:ba:d9:03:9b:ba:
                    00:49:f9:b1:7d:bd:dc:d8:03:90:02:02:39:1a:ec:
                    eb:2a:ee:1e:19
                ASN1 OID: prime256v1
                NIST CURVE: P-256
        X509v3 extensions:
            X509v3 Basic Constraints: 
                CA:FALSE
            Netscape Cert Type: 
                SSL Client, S/MIME
            Netscape Comment: 
                OpenSSL Generated Client Certificate
            X509v3 Subject Key Identifier: 
                89:3F:9C:9B:6F:20:57:CB:3F:F9:1C:AF:AC:39:C4:8D:88:F8:08:19
            X509v3 Authority Key Identifier: 
                keyid:7D:09:68:8C:62:45:55:09:F1:5D:49:D4:E5:86:4A:92:77:CB:CD:DD

            X509v3 Key Usage: critical
                Digital Signature, Non Repudiation, Key Encipherment
            X509v3 Extended Key Usage: 
                TLS Web Client Authentication, E-mail Protection
    Signature Algorithm: ecdsa-with-SHA256
         30:46:02:21:00:82:55:c7:e7:1b:7e:ba:3a:4b:f7:a8:2a:23:
         49:d6:d7:5a:23:d1:52:cd:f7:9a:f3:91:91:ff:e2:4e:f6:ea:
         71:02:21:00:c1:21:b9:78:7d:38:10:f9:20:30:00:fe:7d:92:
         fb:22:66:f6:66:86:f2:92:bb:50:86:fd:06:ac:a8:e7:3d:41
-----BEGIN CERTIFICATE-----
MIICazCCAhCgAwIBAgIBAjAKBggqhkjOPQQDAjBTMQswCQYDVQQGEwJBVTEMMAoG
A1UECAwDVklDMRIwEAYDVQQHDAlNZWxib3VybmUxFTATBgNVBAoMDE5vdEF3ZXNv
bWVDbzELMAkGA1UEAwwCY2EwHhcNMjIwNzE0MTUzNzEyWhcNMjMwNzE0MTUzNzEy
WjBiMQswCQYDVQQGEwJBVTEMMAoGA1UECAwDVklDMRUwEwYDVQQKDAxOb3RBd2Vz
b21lQ28xDjAMBgNVBAMMBWZpcnN0MR4wHAYJKoZIhvcNAQkBFg9maXJzdEBmaXJz
dC5jb20wWTATBgcqhkjOPQIBBggqhkjOPQMBBwNCAAQi83b+lbcHmVUSlreDjYKi
67RhfgHm9W07ci4ce45jWg8i+MIK2Xy62QObugBJ+bF9vdzYA5ACAjka7Osq7h4Z
o4HFMIHCMAkGA1UdEwQCMAAwEQYJYIZIAYb4QgEBBAQDAgWgMDMGCWCGSAGG+EIB
DQQmFiRPcGVuU1NMIEdlbmVyYXRlZCBDbGllbnQgQ2VydGlmaWNhdGUwHQYDVR0O
BBYEFIk/nJtvIFfLP/kcr6w5xI2I+AgZMB8GA1UdIwQYMBaAFH0JaIxiRVUJ8V1J
1OWGSpJ3y83dMA4GA1UdDwEB/wQEAwIF4DAdBgNVHSUEFjAUBggrBgEFBQcDAgYI
KwYBBQUHAwQwCgYIKoZIzj0EAwIDSQAwRgIhAIJVx+cbfro6S/eoKiNJ1tdaI9FS
zfea85GR/+JO9upxAiEAwSG5eH04EPkgMAD+fZL7Imb2ZobykrtQhv0GrKjnPUE=
-----END CERTIFICATE-----
